; Function Attrs: mustprogress uwtable
define noundef ptr @_ZN7rocksdb15GetPropertyInfoERKNS_5SliceE(ptr nocapture noundef nonnull readonly align 8 dereferenceable(16) %property) local_unnamed_addr #4 personality ptr @__gxx_personality_v0 {
entry:
  %ppt_name = alloca %"class.std::__cxx11::basic_string", align 8
  %ref.tmp = alloca %"struct.std::pair.310", align 8
  tail call void @llvm.experimental.noalias.scope.decl(metadata !43)
  %name.sroa.0.0.copyload.i = load ptr, ptr %property, align 8, !noalias !43
  %name.sroa.2.0.property.sroa_idx.i = getelementptr inbounds i8, ptr %property, i64 8
  %name.sroa.2.0.copyload.i = load i64, ptr %name.sroa.2.0.property.sroa_idx.i, align 8, !noalias !43
  %cmp19.not.i = icmp eq i64 %name.sroa.2.0.copyload.i, 0
  br i1 %cmp19.not.i, label %_ZN7rocksdb12_GLOBAL__N_121GetPropertyNameAndArgERKNS_5SliceE.exit, label %land.rhs.lr.ph.i

land.rhs.lr.ph.i:                                 ; preds = %entry
  %0 = getelementptr i8, ptr %name.sroa.0.0.copyload.i, i64 %name.sroa.2.0.copyload.i
  br label %land.rhs.i

land.rhs.i:                                       ; preds = %while.body.i, %land.rhs.lr.ph.i
  %sfx_len.020.i = phi i64 [ 0, %land.rhs.lr.ph.i ], [ %inc.i, %while.body.i ]
  %1 = xor i64 %sfx_len.020.i, -1
  %arrayidx.i.i = getelementptr i8, ptr %0, i64 %1
  %2 = load i8, ptr %arrayidx.i.i, align 1, !noalias !43
  %conv.i = sext i8 %2 to i32
  %isdigittmp.i = add nsw i32 %conv.i, -48
  %isdigit.i = icmp ult i32 %isdigittmp.i, 10
  br i1 %isdigit.i, label %while.body.i, label %_ZN7rocksdb12_GLOBAL__N_121GetPropertyNameAndArgERKNS_5SliceE.exit

while.body.i:                                     ; preds = %land.rhs.i
  %inc.i = add nuw i64 %sfx_len.020.i, 1
  %exitcond.not.i = icmp eq i64 %inc.i, %name.sroa.2.0.copyload.i
  br i1 %exitcond.not.i, label %_ZN7rocksdb12_GLOBAL__N_121GetPropertyNameAndArgERKNS_5SliceE.exit, label %land.rhs.i, !llvm.loop !46

_ZN7rocksdb12_GLOBAL__N_121GetPropertyNameAndArgERKNS_5SliceE.exit: ; preds = %land.rhs.i, %while.body.i, %entry
  %sfx_len.0.lcssa.i = phi i64 [ 0, %entry ], [ %sfx_len.020.i, %land.rhs.i ], [ %name.sroa.2.0.copyload.i, %while.body.i ]
  %sub.i.i = sub i64 %name.sroa.2.0.copyload.i, %sfx_len.0.lcssa.i
  %add.ptr.i.i = getelementptr inbounds i8, ptr %name.sroa.0.0.copyload.i, i64 %sub.i.i
  store ptr %name.sroa.0.0.copyload.i, ptr %ref.tmp, align 8, !alias.scope !43
  %name.sroa.2.0.agg.result.sroa_idx.i = getelementptr inbounds i8, ptr %ref.tmp, i64 8
  store i64 %sub.i.i, ptr %name.sroa.2.0.agg.result.sroa_idx.i, align 8, !alias.scope !43
  %second.i.i = getelementptr inbounds i8, ptr %ref.tmp, i64 16
  store ptr %add.ptr.i.i, ptr %second.i.i, align 8, !alias.scope !43
  %arg.sroa.4.0.second.i.sroa_idx.i = getelementptr inbounds i8, ptr %ref.tmp, i64 24
  store i64 %sfx_len.0.lcssa.i, ptr %arg.sroa.4.0.second.i.sroa_idx.i, align 8, !alias.scope !43
  call void @_ZNK7rocksdb5Slice8ToStringB5cxx11Eb(ptr nonnull sret(%"class.std::__cxx11::basic_string") align 8 %ppt_name, ptr noundef nonnull align 8 dereferenceable(16) %ref.tmp, i1 noundef zeroext false)
  %call.i1 = invoke ptr @_ZNKSt10_HashtableINSt7__cxx1112basic_stringIcSt11char_traitsIcESaIcEEESt4pairIKS5_N7rocksdb14DBPropertyInfoEESaISA_ENSt8__detail10_Select1stESt8equal_toIS5_ESt4hashIS5_ENSC_18_Mod_range_hashingENSC_20_Default_ranged_hashENSC_20_Prime_rehash_policyENSC_17_Hashtable_traitsILb1ELb0ELb1EEEE4findERS7_(ptr noundef nonnull align 8 dereferenceable(56) @_ZN7rocksdb13InternalStats16ppt_name_to_infoB5cxx11E, ptr noundef nonnull align 8 dereferenceable(32) %ppt_name)
          to label %invoke.cont unwind label %lpad

invoke.cont:                                      ; preds = %_ZN7rocksdb12_GLOBAL__N_121GetPropertyNameAndArgERKNS_5SliceE.exit
  %cmp.i = icmp eq ptr %call.i1, null
  %second = getelementptr inbounds i8, ptr %call.i1, i64 40
  %retval.0 = select i1 %cmp.i, ptr null, ptr %second
  call void @_ZNSt7__cxx1112basic_stringIcSt11char_traitsIcESaIcEED1Ev(ptr noundef nonnull align 8 dereferenceable(32) %ppt_name) #28
  ret ptr %retval.0

lpad:                                             ; preds = %_ZN7rocksdb12_GLOBAL__N_121GetPropertyNameAndArgERKNS_5SliceE.exit
  %3 = landingpad { ptr, i32 }
          cleanup
  call void @_ZNSt7__cxx1112basic_stringIcSt11char_traitsIcESaIcEED1Ev(ptr noundef nonnull align 8 dereferenceable(32) %ppt_name) #28
  resume { ptr, i32 } %3
}